target datalayout = "e-m:e-p270:32:32-p271:32:32-p272:64:64-i64:64-i128:128-f80:128-n8:16:32:64-S128"
target triple = "x86_64-pc-linux-gnu"

%struct._lv_image_t = type { %struct._lv_obj_t, ptr, ptr, %struct.lv_point_t, i32, i32, i32, i32, i32, %struct.lv_point_t, i16 }
%struct._lv_obj_t = type { ptr, ptr, ptr, ptr, ptr, %struct.lv_area_t, i32, i16, i16 }
%struct.lv_area_t = type { i32, i32, i32, i32 }
%struct.lv_point_t = type { i32, i32 }
%struct.lv_image_header_t = type <{ i64, i32 }>
%union.lv_style_value_t = type { ptr }

; Function Attrs: inlinehint nounwind uwtable
define internal i32 @lv_obj_get_style_text_line_space(ptr noundef %0, i32 noundef %1) #3 {
  %3 = alloca ptr, align 8
  %4 = alloca i32, align 4
  %5 = alloca %union.lv_style_value_t, align 8
  store ptr %0, ptr %3, align 8, !tbaa !8
  store i32 %1, ptr %4, align 4, !tbaa !28
  call void @llvm.lifetime.start.p0(i64 8, ptr %5) #5
  %6 = load ptr, ptr %3, align 8, !tbaa !8
  %7 = load i32, ptr %4, align 4, !tbaa !28
  %8 = call ptr @lv_obj_get_style_prop(ptr noundef %6, i32 noundef %7, i8 noundef zeroext 92)
  %9 = getelementptr inbounds nuw %union.lv_style_value_t, ptr %5, i32 0, i32 0
  store ptr %8, ptr %9, align 8
  %10 = load i32, ptr %5, align 8, !tbaa !52
  call void @llvm.lifetime.end.p0(i64 8, ptr %5) #5
  ret i32 %10
}

; Function Attrs: inlinehint nounwind uwtable
define internal i32 @lv_obj_get_style_text_letter_space(ptr noundef %0, i32 noundef %1) #3 {
  %3 = alloca ptr, align 8
  %4 = alloca i32, align 4
  %5 = alloca %union.lv_style_value_t, align 8
  store ptr %0, ptr %3, align 8, !tbaa !8
  store i32 %1, ptr %4, align 4, !tbaa !28
  call void @llvm.lifetime.start.p0(i64 8, ptr %5) #5
  %6 = load ptr, ptr %3, align 8, !tbaa !8
  %7 = load i32, ptr %4, align 4, !tbaa !28
  %8 = call ptr @lv_obj_get_style_prop(ptr noundef %6, i32 noundef %7, i8 noundef zeroext 91)
  %9 = getelementptr inbounds nuw %union.lv_style_value_t, ptr %5, i32 0, i32 0
  store ptr %8, ptr %9, align 8
  %10 = load i32, ptr %5, align 8, !tbaa !52
  call void @llvm.lifetime.end.p0(i64 8, ptr %5) #5
  ret i32 %10
}

; Function Attrs: inlinehint nounwind uwtable
define internal ptr @lv_obj_get_style_text_font(ptr noundef %0, i32 noundef %1) #3 {
  %3 = alloca ptr, align 8
  %4 = alloca i32, align 4
  %5 = alloca %union.lv_style_value_t, align 8
  store ptr %0, ptr %3, align 8, !tbaa !8
  store i32 %1, ptr %4, align 4, !tbaa !28
  call void @llvm.lifetime.start.p0(i64 8, ptr %5) #5
  %6 = load ptr, ptr %3, align 8, !tbaa !8
  %7 = load i32, ptr %4, align 4, !tbaa !28
  %8 = call ptr @lv_obj_get_style_prop(ptr noundef %6, i32 noundef %7, i8 noundef zeroext 90)
  %9 = getelementptr inbounds nuw %union.lv_style_value_t, ptr %5, i32 0, i32 0
  store ptr %8, ptr %9, align 8
  %10 = load ptr, ptr %5, align 8, !tbaa !52
  call void @llvm.lifetime.end.p0(i64 8, ptr %5) #5
  ret ptr %10
}

; Function Attrs: nounwind uwtable
define void @lv_image_set_src(ptr noundef %0, ptr noundef %1) #0 {
  %3 = alloca ptr, align 8
  %4 = alloca ptr, align 8
  %5 = alloca i32, align 4
  %6 = alloca ptr, align 8
  %7 = alloca i32, align 4
  %8 = alloca %struct.lv_image_header_t, align 4
  %9 = alloca i32, align 4
  %10 = alloca ptr, align 8
  %11 = alloca ptr, align 8
  %12 = alloca ptr, align 8
  %13 = alloca i32, align 4
  %14 = alloca i32, align 4
  %15 = alloca %struct.lv_point_t, align 4
  store ptr %0, ptr %3, align 8, !tbaa !8
  store ptr %1, ptr %4, align 8, !tbaa !45
  br label %16

16:                                               ; preds = %2
  %17 = load ptr, ptr %3, align 8, !tbaa !8
  %18 = icmp ne ptr %17, null
  br i1 %18, label %23, label %19

19:                                               ; preds = %16
  br label %20

20:                                               ; preds = %19
  br label %21

21:                                               ; preds = %20
  br label %22

22:                                               ; preds = %21, %22
  br label %22

23:                                               ; preds = %16
  br label %24

24:                                               ; preds = %23
  %25 = load ptr, ptr %3, align 8, !tbaa !8
  call void @lv_obj_invalidate(ptr noundef %25)
  call void @llvm.lifetime.start.p0(i64 4, ptr %5) #5
  %26 = load ptr, ptr %4, align 8, !tbaa !45
  %27 = call i32 @lv_image_src_get_type(ptr noundef %26)
  store i32 %27, ptr %5, align 4, !tbaa !28
  call void @llvm.lifetime.start.p0(i64 8, ptr %6) #5
  %28 = load ptr, ptr %3, align 8, !tbaa !8
  store ptr %28, ptr %6, align 8, !tbaa !10
  %29 = load i32, ptr %5, align 4, !tbaa !28
  %30 = icmp eq i32 %29, 3
  br i1 %30, label %31, label %60

31:                                               ; preds = %24
  br label %32

32:                                               ; preds = %31
  br label %33

33:                                               ; preds = %32
  br label %34

34:                                               ; preds = %33
  %35 = load ptr, ptr %6, align 8, !tbaa !10
  %36 = getelementptr inbounds nuw %struct._lv_image_t, ptr %35, i32 0, i32 10
  %37 = load i16, ptr %36, align 4
  %38 = and i16 %37, 3
  %39 = zext i16 %38 to i32
  %40 = icmp eq i32 %39, 2
  br i1 %40, label %48, label %41

41:                                               ; preds = %34
  %42 = load ptr, ptr %6, align 8, !tbaa !10
  %43 = getelementptr inbounds nuw %struct._lv_image_t, ptr %42, i32 0, i32 10
  %44 = load i16, ptr %43, align 4
  %45 = and i16 %44, 3
  %46 = zext i16 %45 to i32
  %47 = icmp eq i32 %46, 1
  br i1 %47, label %48, label %52

48:                                               ; preds = %41, %34
  %49 = load ptr, ptr %6, align 8, !tbaa !10
  %50 = getelementptr inbounds nuw %struct._lv_image_t, ptr %49, i32 0, i32 1
  %51 = load ptr, ptr %50, align 8, !tbaa !12
  call void @lv_free(ptr noundef %51)
  br label %52

52:                                               ; preds = %48, %41
  %53 = load ptr, ptr %6, align 8, !tbaa !10
  %54 = getelementptr inbounds nuw %struct._lv_image_t, ptr %53, i32 0, i32 1
  store ptr null, ptr %54, align 8, !tbaa !12
  %55 = load ptr, ptr %6, align 8, !tbaa !10
  %56 = getelementptr inbounds nuw %struct._lv_image_t, ptr %55, i32 0, i32 10
  %57 = load i16, ptr %56, align 4
  %58 = and i16 %57, -4
  %59 = or i16 %58, 3
  store i16 %59, ptr %56, align 4
  store i32 1, ptr %7, align 4
  br label %237

60:                                               ; preds = %24
  call void @llvm.lifetime.start.p0(i64 12, ptr %8) #5
  call void @llvm.lifetime.start.p0(i64 4, ptr %9) #5
  %61 = load ptr, ptr %4, align 8, !tbaa !45
  %62 = call i32 @lv_image_decoder_get_info(ptr noundef %61, ptr noundef %8)
  store i32 %62, ptr %9, align 4, !tbaa !28
  %63 = load i32, ptr %9, align 4, !tbaa !28
  %64 = icmp ne i32 %63, 1
  br i1 %64, label %65, label %66

65:                                               ; preds = %60
  store i32 1, ptr %7, align 4
  br label %236

66:                                               ; preds = %60
  %67 = load i32, ptr %5, align 4, !tbaa !28
  %68 = icmp eq i32 %67, 0
  br i1 %68, label %69, label %91

69:                                               ; preds = %66
  %70 = load ptr, ptr %6, align 8, !tbaa !10
  %71 = getelementptr inbounds nuw %struct._lv_image_t, ptr %70, i32 0, i32 10
  %72 = load i16, ptr %71, align 4
  %73 = and i16 %72, 3
  %74 = zext i16 %73 to i32
  %75 = icmp eq i32 %74, 1
  br i1 %75, label %83, label %76

76:                                               ; preds = %69
  %77 = load ptr, ptr %6, align 8, !tbaa !10
  %78 = getelementptr inbounds nuw %struct._lv_image_t, ptr %77, i32 0, i32 10
  %79 = load i16, ptr %78, align 4
  %80 = and i16 %79, 3
  %81 = zext i16 %80 to i32
  %82 = icmp eq i32 %81, 2
  br i1 %82, label %83, label %87

83:                                               ; preds = %76, %69
  %84 = load ptr, ptr %6, align 8, !tbaa !10
  %85 = getelementptr inbounds nuw %struct._lv_image_t, ptr %84, i32 0, i32 1
  %86 = load ptr, ptr %85, align 8, !tbaa !12
  call void @lv_free(ptr noundef %86)
  br label %87

87:                                               ; preds = %83, %76
  %88 = load ptr, ptr %4, align 8, !tbaa !45
  %89 = load ptr, ptr %6, align 8, !tbaa !10
  %90 = getelementptr inbounds nuw %struct._lv_image_t, ptr %89, i32 0, i32 1
  store ptr %88, ptr %90, align 8, !tbaa !12
  br label %153

91:                                               ; preds = %66
  %92 = load i32, ptr %5, align 4, !tbaa !28
  %93 = icmp eq i32 %92, 1
  br i1 %93, label %97, label %94

94:                                               ; preds = %91
  %95 = load i32, ptr %5, align 4, !tbaa !28
  %96 = icmp eq i32 %95, 2
  br i1 %96, label %97, label %152

97:                                               ; preds = %94, %91
  %98 = load ptr, ptr %6, align 8, !tbaa !10
  %99 = getelementptr inbounds nuw %struct._lv_image_t, ptr %98, i32 0, i32 1
  %100 = load ptr, ptr %99, align 8, !tbaa !12
  %101 = load ptr, ptr %4, align 8, !tbaa !45
  %102 = icmp ne ptr %100, %101
  br i1 %102, label %103, label %151

103:                                              ; preds = %97
  call void @llvm.lifetime.start.p0(i64 8, ptr %10) #5
  store ptr null, ptr %10, align 8, !tbaa !45
  %104 = load ptr, ptr %6, align 8, !tbaa !10
  %105 = getelementptr inbounds nuw %struct._lv_image_t, ptr %104, i32 0, i32 10
  %106 = load i16, ptr %105, align 4
  %107 = and i16 %106, 3
  %108 = zext i16 %107 to i32
  %109 = icmp eq i32 %108, 1
  br i1 %109, label %117, label %110

110:                                              ; preds = %103
  %111 = load ptr, ptr %6, align 8, !tbaa !10
  %112 = getelementptr inbounds nuw %struct._lv_image_t, ptr %111, i32 0, i32 10
  %113 = load i16, ptr %112, align 4
  %114 = and i16 %113, 3
  %115 = zext i16 %114 to i32
  %116 = icmp eq i32 %115, 2
  br i1 %116, label %117, label %121

117:                                              ; preds = %110, %103
  %118 = load ptr, ptr %6, align 8, !tbaa !10
  %119 = getelementptr inbounds nuw %struct._lv_image_t, ptr %118, i32 0, i32 1
  %120 = load ptr, ptr %119, align 8, !tbaa !12
  store ptr %120, ptr %10, align 8, !tbaa !45
  br label %121

121:                                              ; preds = %117, %110
  call void @llvm.lifetime.start.p0(i64 8, ptr %11) #5
  %122 = load ptr, ptr %4, align 8, !tbaa !45
  %123 = call ptr @lv_strdup(ptr noundef %122)
  store ptr %123, ptr %11, align 8, !tbaa !48
  br label %124

124:                                              ; preds = %121
  %125 = load ptr, ptr %11, align 8, !tbaa !48
  %126 = icmp ne ptr %125, null
  br i1 %126, label %133, label %127

127:                                              ; preds = %124
  br label %128

128:                                              ; preds = %127
  br label %129

129:                                              ; preds = %128
  br label %130

130:                                              ; preds = %129
  br label %131

131:                                              ; preds = %132, %130
  br label %132

132:                                              ; preds = %131
  br label %131

133:                                              ; preds = %124
  br label %134

134:                                              ; preds = %133
  br label %135

135:                                              ; preds = %134
  %136 = load ptr, ptr %11, align 8, !tbaa !48
  %137 = icmp eq ptr %136, null
  br i1 %137, label %138, label %139

138:                                              ; preds = %135
  store i32 1, ptr %7, align 4
  br label %148

139:                                              ; preds = %135
  %140 = load ptr, ptr %11, align 8, !tbaa !48
  %141 = load ptr, ptr %6, align 8, !tbaa !10
  %142 = getelementptr inbounds nuw %struct._lv_image_t, ptr %141, i32 0, i32 1
  store ptr %140, ptr %142, align 8, !tbaa !12
  %143 = load ptr, ptr %10, align 8, !tbaa !45
  %144 = icmp ne ptr %143, null
  br i1 %144, label %145, label %147

145:                                              ; preds = %139
  %146 = load ptr, ptr %10, align 8, !tbaa !45
  call void @lv_free(ptr noundef %146)
  br label %147

147:                                              ; preds = %145, %139
  store i32 0, ptr %7, align 4
  br label %148

148:                                              ; preds = %147, %138
  call void @llvm.lifetime.end.p0(i64 8, ptr %11) #5
  call void @llvm.lifetime.end.p0(i64 8, ptr %10) #5
  %149 = load i32, ptr %7, align 4
  switch i32 %149, label %236 [
    i32 0, label %150
  ]

150:                                              ; preds = %148
  br label %151

151:                                              ; preds = %150, %97
  br label %152

152:                                              ; preds = %151, %94
  br label %153

153:                                              ; preds = %152, %87
  %154 = load i32, ptr %5, align 4, !tbaa !28
  %155 = icmp eq i32 %154, 2
  br i1 %155, label %156, label %183

156:                                              ; preds = %153
  call void @llvm.lifetime.start.p0(i64 8, ptr %12) #5
  %157 = load ptr, ptr %3, align 8, !tbaa !8
  %158 = call ptr @lv_obj_get_style_text_font(ptr noundef %157, i32 noundef 0)
  store ptr %158, ptr %12, align 8, !tbaa !50
  call void @llvm.lifetime.start.p0(i64 4, ptr %13) #5
  %159 = load ptr, ptr %3, align 8, !tbaa !8
  %160 = call i32 @lv_obj_get_style_text_letter_space(ptr noundef %159, i32 noundef 0)
  store i32 %160, ptr %13, align 4, !tbaa !28
  call void @llvm.lifetime.start.p0(i64 4, ptr %14) #5
  %161 = load ptr, ptr %3, align 8, !tbaa !8
  %162 = call i32 @lv_obj_get_style_text_line_space(ptr noundef %161, i32 noundef 0)
  store i32 %162, ptr %14, align 4, !tbaa !28
  call void @llvm.lifetime.start.p0(i64 8, ptr %15) #5
  %163 = load ptr, ptr %4, align 8, !tbaa !45
  %164 = load ptr, ptr %12, align 8, !tbaa !50
  %165 = load i32, ptr %13, align 4, !tbaa !28
  %166 = load i32, ptr %14, align 4, !tbaa !28
  call void @lv_text_get_size(ptr noundef %15, ptr noundef %163, ptr noundef %164, i32 noundef %165, i32 noundef %166, i32 noundef 536870911, i32 noundef 0)
  %167 = getelementptr inbounds nuw %struct.lv_point_t, ptr %15, i32 0, i32 0
  %168 = load i32, ptr %167, align 4, !tbaa !46
  %169 = zext i32 %168 to i64
  %170 = load i64, ptr %8, align 4
  %171 = and i64 %169, 65535
  %172 = shl i64 %171, 32
  %173 = and i64 %170, -281470681743361
  %174 = or i64 %173, %172
  store i64 %174, ptr %8, align 4
  %175 = getelementptr inbounds nuw %struct.lv_point_t, ptr %15, i32 0, i32 1
  %176 = load i32, ptr %175, align 4, !tbaa !47
  %177 = zext i32 %176 to i64
  %178 = load i64, ptr %8, align 4
  %179 = and i64 %177, 65535
  %180 = shl i64 %179, 48
  %181 = and i64 %178, 281474976710655
  %182 = or i64 %181, %180
  store i64 %182, ptr %8, align 4
  call void @llvm.lifetime.end.p0(i64 8, ptr %15) #5
  call void @llvm.lifetime.end.p0(i64 4, ptr %14) #5
  call void @llvm.lifetime.end.p0(i64 4, ptr %13) #5
  call void @llvm.lifetime.end.p0(i64 8, ptr %12) #5
  br label %183

183:                                              ; preds = %156, %153
  %184 = load i32, ptr %5, align 4, !tbaa !28
  %185 = load ptr, ptr %6, align 8, !tbaa !10
  %186 = getelementptr inbounds nuw %struct._lv_image_t, ptr %185, i32 0, i32 10
  %187 = trunc i32 %184 to i16
  %188 = load i16, ptr %186, align 4
  %189 = and i16 %187, 3
  %190 = and i16 %188, -4
  %191 = or i16 %190, %189
  store i16 %191, ptr %186, align 4
  %192 = load i64, ptr %8, align 4
  %193 = lshr i64 %192, 32
  %194 = and i64 %193, 65535
  %195 = trunc i64 %194 to i32
  %196 = load ptr, ptr %6, align 8, !tbaa !10
  %197 = getelementptr inbounds nuw %struct._lv_image_t, ptr %196, i32 0, i32 4
  store i32 %195, ptr %197, align 8, !tbaa !21
  %198 = load i64, ptr %8, align 4
  %199 = lshr i64 %198, 48
  %200 = trunc i64 %199 to i32
  %201 = load ptr, ptr %6, align 8, !tbaa !10
  %202 = getelementptr inbounds nuw %struct._lv_image_t, ptr %201, i32 0, i32 5
  store i32 %200, ptr %202, align 4, !tbaa !22
  %203 = load i64, ptr %8, align 4
  %204 = lshr i64 %203, 8
  %205 = and i64 %204, 255
  %206 = trunc i64 %205 to i32
  %207 = load ptr, ptr %6, align 8, !tbaa !10
  %208 = getelementptr inbounds nuw %struct._lv_image_t, ptr %207, i32 0, i32 10
  %209 = trunc i32 %206 to i16
  %210 = load i16, ptr %208, align 4
  %211 = and i16 %209, 31
  %212 = shl i16 %211, 2
  %213 = and i16 %210, -125
  %214 = or i16 %213, %212
  store i16 %214, ptr %208, align 4
  %215 = load ptr, ptr %3, align 8, !tbaa !8
  %216 = call zeroext i1 @lv_obj_refresh_self_size(ptr noundef %215)
  %217 = load ptr, ptr %3, align 8, !tbaa !8
  call void @update_align(ptr noundef %217)
  %218 = load ptr, ptr %6, align 8, !tbaa !10
  %219 = getelementptr inbounds nuw %struct._lv_image_t, ptr %218, i32 0, i32 6
  %220 = load i32, ptr %219, align 8, !tbaa !23
  %221 = icmp ne i32 %220, 0
  br i1 %221, label %232, label %222

222:                                              ; preds = %183
  %223 = load ptr, ptr %6, align 8, !tbaa !10
  %224 = getelementptr inbounds nuw %struct._lv_image_t, ptr %223, i32 0, i32 7
  %225 = load i32, ptr %224, align 4, !tbaa !24
  %226 = icmp ne i32 %225, 256
  br i1 %226, label %232, label %227

227:                                              ; preds = %222
  %228 = load ptr, ptr %6, align 8, !tbaa !10
  %229 = getelementptr inbounds nuw %struct._lv_image_t, ptr %228, i32 0, i32 8
  %230 = load i32, ptr %229, align 8, !tbaa !25
  %231 = icmp ne i32 %230, 256
  br i1 %231, label %232, label %234

232:                                              ; preds = %227, %222, %183
  %233 = load ptr, ptr %3, align 8, !tbaa !8
  call void @lv_obj_refresh_ext_draw_size(ptr noundef %233)
  br label %234

234:                                              ; preds = %232, %227
  %235 = load ptr, ptr %3, align 8, !tbaa !8
  call void @lv_obj_invalidate(ptr noundef %235)
  store i32 0, ptr %7, align 4
  br label %236

236:                                              ; preds = %234, %148, %65
  call void @llvm.lifetime.end.p0(i64 4, ptr %9) #5
  call void @llvm.lifetime.end.p0(i64 12, ptr %8) #5
  br label %237

237:                                              ; preds = %236, %52
  call void @llvm.lifetime.end.p0(i64 8, ptr %6) #5
  call void @llvm.lifetime.end.p0(i64 4, ptr %5) #5
  %238 = load i32, ptr %7, align 4
  switch i32 %238, label %240 [
    i32 0, label %239
    i32 1, label %239
  ]

239:                                              ; preds = %237, %237
  ret void

240:                                              ; preds = %237
  unreachable
}