; Function Attrs: nounwind uwtable
define void @lv_image_set_src(ptr noundef %0, ptr noundef %1) local_unnamed_addr #0 {
  %3 = alloca %struct.lv_image_header_t, align 8
  %4 = alloca %struct.lv_point_t, align 4
  %.not = icmp eq ptr %0, null
  br i1 %.not, label %.preheader, label %5

.preheader:                                       ; preds = %2, %.preheader
  br label %.preheader

5:                                                ; preds = %2
  tail call void @lv_obj_invalidate(ptr noundef nonnull %0) #6
  %6 = tail call i32 @lv_image_src_get_type(ptr noundef %1) #6
  %7 = icmp eq i32 %6, 3
  br i1 %7, label %8, label %19

8:                                                ; preds = %5
  %9 = getelementptr inbounds nuw i8, ptr %0, i64 116
  %10 = load i16, ptr %9, align 4
  %11 = and i16 %10, 3
  %.off = add nsw i16 %11, -1
  %switch = icmp ult i16 %.off, 2
  br i1 %switch, label %12, label %15

12:                                               ; preds = %8
  %13 = getelementptr inbounds nuw i8, ptr %0, i64 64
  %14 = load ptr, ptr %13, align 8, !tbaa !3
  tail call void @lv_free(ptr noundef %14) #6
  %.pre = load i16, ptr %9, align 4
  br label %15

15:                                               ; preds = %8, %12
  %16 = phi i16 [ %10, %8 ], [ %.pre, %12 ]
  %17 = getelementptr inbounds nuw i8, ptr %0, i64 64
  store ptr null, ptr %17, align 8, !tbaa !3
  %18 = or i16 %16, 3
  store i16 %18, ptr %9, align 4
  br label %94

19:                                               ; preds = %5
  call void @llvm.lifetime.start.p0(i64 12, ptr nonnull %3) #6
  %20 = call i32 @lv_image_decoder_get_info(ptr noundef %1, ptr noundef nonnull %3) #6
  %.not61 = icmp eq i32 %20, 1
  br i1 %.not61, label %21, label %93

21:                                               ; preds = %19
  %22 = icmp eq i32 %6, 0
  br i1 %22, label %23, label %32

23:                                               ; preds = %21
  %24 = getelementptr inbounds nuw i8, ptr %0, i64 116
  %25 = load i16, ptr %24, align 4
  %26 = and i16 %25, 3
  %.off68 = add nsw i16 %26, -1
  %switch69 = icmp ult i16 %.off68, 2
  br i1 %switch69, label %27, label %30

27:                                               ; preds = %23
  %28 = getelementptr inbounds nuw i8, ptr %0, i64 64
  %29 = load ptr, ptr %28, align 8, !tbaa !3
  call void @lv_free(ptr noundef %29) #6
  br label %30

30:                                               ; preds = %23, %27
  %31 = getelementptr inbounds nuw i8, ptr %0, i64 64
  store ptr %1, ptr %31, align 8, !tbaa !3
  br label %.thread

32:                                               ; preds = %21
  %or.cond = icmp ult i32 %6, 3
  br i1 %or.cond, label %33, label %.thread

33:                                               ; preds = %32
  %34 = getelementptr inbounds nuw i8, ptr %0, i64 64
  %35 = load ptr, ptr %34, align 8, !tbaa !3
  %.not62 = icmp eq ptr %35, %1
  br i1 %.not62, label %43, label %36

36:                                               ; preds = %33
  %37 = getelementptr inbounds nuw i8, ptr %0, i64 116
  %38 = load i16, ptr %37, align 4
  %39 = and i16 %38, 3
  %.off70 = add nsw i16 %39, -1
  %switch71 = icmp ult i16 %.off70, 2
  %spec.select = select i1 %switch71, ptr %35, ptr null
  %40 = call ptr @lv_strdup(ptr noundef %1) #6
  %.not63 = icmp eq ptr %40, null
  br i1 %.not63, label %.preheader73, label %41

.preheader73:                                     ; preds = %36, %.preheader73
  br label %.preheader73

41:                                               ; preds = %36
  store ptr %40, ptr %34, align 8, !tbaa !3
  %.not64 = icmp eq ptr %spec.select, null
  br i1 %.not64, label %43, label %42

42:                                               ; preds = %41
  call void @lv_free(ptr noundef nonnull %spec.select) #6
  br label %43

43:                                               ; preds = %42, %41, %33
  %44 = icmp eq i32 %6, 2
  br i1 %44, label %45, label %.thread

45:                                               ; preds = %43
  %46 = call ptr @lv_obj_get_style_prop(ptr noundef nonnull %0, i32 noundef 0, i8 noundef zeroext 90) #6
  %47 = call ptr @lv_obj_get_style_prop(ptr noundef nonnull %0, i32 noundef 0, i8 noundef zeroext 91) #6
  %48 = ptrtoint ptr %47 to i64
  %.sroa.0.0.extract.trunc.i = trunc i64 %48 to i32
  %49 = call ptr @lv_obj_get_style_prop(ptr noundef nonnull %0, i32 noundef 0, i8 noundef zeroext 92) #6
  %50 = ptrtoint ptr %49 to i64
  %.sroa.0.0.extract.trunc.i72 = trunc i64 %50 to i32
  call void @llvm.lifetime.start.p0(i64 8, ptr nonnull %4) #6
  call void @lv_text_get_size(ptr noundef nonnull %4, ptr noundef %1, ptr noundef %46, i32 noundef %.sroa.0.0.extract.trunc.i, i32 noundef %.sroa.0.0.extract.trunc.i72, i32 noundef 536870911, i32 noundef 0) #6
  %51 = load i32, ptr %4, align 4, !tbaa !23
  %52 = load i64, ptr %3, align 8
  %53 = and i32 %51, 65535
  %54 = zext nneg i32 %53 to i64
  %55 = shl nuw nsw i64 %54, 32
  %56 = and i64 %52, 4294967295
  %57 = or disjoint i64 %55, %56
  %58 = getelementptr inbounds nuw i8, ptr %4, i64 4
  %59 = load i32, ptr %58, align 4, !tbaa !25
  %60 = and i32 %59, 65535
  %61 = zext nneg i32 %60 to i64
  %62 = shl nuw i64 %61, 48
  %63 = or disjoint i64 %62, %57
  store i64 %63, ptr %3, align 8
  call void @llvm.lifetime.end.p0(i64 8, ptr nonnull %4) #6
  br label %.thread

.thread:                                          ; preds = %30, %32, %45, %43
  %64 = getelementptr inbounds nuw i8, ptr %0, i64 116
  %65 = trunc i32 %6 to i16
  %66 = load i16, ptr %64, align 4
  %67 = and i16 %65, 3
  %68 = and i16 %66, -128
  %69 = or disjoint i16 %68, %67
  %70 = load i64, ptr %3, align 8
  %71 = lshr i64 %70, 32
  %72 = trunc nuw i64 %71 to i32
  %73 = and i32 %72, 65535
  %74 = getelementptr inbounds nuw i8, ptr %0, i64 88
  store i32 %73, ptr %74, align 8, !tbaa !17
  %75 = lshr i64 %70, 48
  %76 = trunc nuw nsw i64 %75 to i32
  %77 = getelementptr inbounds nuw i8, ptr %0, i64 92
  store i32 %76, ptr %77, align 4, !tbaa !18
  %78 = trunc i64 %70 to i16
  %79 = lshr i16 %78, 6
  %80 = and i16 %79, 124
  %81 = or disjoint i16 %80, %69
  store i16 %81, ptr %64, align 4
  %82 = call zeroext i1 @lv_obj_refresh_self_size(ptr noundef nonnull %0) #6
  call fastcc void @update_align(ptr noundef nonnull %0)
  %83 = getelementptr inbounds nuw i8, ptr %0, i64 96
  %84 = load i32, ptr %83, align 8, !tbaa !19
  %.not65 = icmp eq i32 %84, 0
  br i1 %.not65, label %85, label %91

85:                                               ; preds = %.thread
  %86 = getelementptr inbounds nuw i8, ptr %0, i64 100
  %87 = load i32, ptr %86, align 4, !tbaa !20
  %.not66 = icmp eq i32 %87, 256
  br i1 %.not66, label %88, label %91

88:                                               ; preds = %85
  %89 = getelementptr inbounds nuw i8, ptr %0, i64 104
  %90 = load i32, ptr %89, align 8, !tbaa !21
  %.not67 = icmp eq i32 %90, 256
  br i1 %.not67, label %92, label %91

91:                                               ; preds = %88, %85, %.thread
  call void @lv_obj_refresh_ext_draw_size(ptr noundef nonnull %0) #6
  br label %92

92:                                               ; preds = %91, %88
  call void @lv_obj_invalidate(ptr noundef nonnull %0) #6
  br label %93

93:                                               ; preds = %19, %92
  call void @llvm.lifetime.end.p0(i64 12, ptr nonnull %3) #6
  br label %94

94:                                               ; preds = %93, %15
  ret void
}